target datalayout = "e-m:e-p270:32:32-p271:32:32-p272:64:64-i64:64-i128:128-f80:128-n8:16:32:64-S128"
target triple = "x86_64-pc-linux-gnu"

%class.FileIO = type <{ %struct.duFileIO, ptr, i32, [4 x i8] }>
%struct.duFileIO = type { ptr }

; Function Attrs: mustprogress uwtable
define dso_local noundef zeroext i1 @_ZN6FileIO5writeEPKvm(ptr noundef nonnull align 8 dereferenceable(20) %0, ptr noundef %1, i64 noundef %2) unnamed_addr #0 align 2 {
  %4 = alloca i1, align 1
  %5 = alloca ptr, align 8
  %6 = alloca ptr, align 8
  %7 = alloca i64, align 8
  store ptr %0, ptr %5, align 8
  store ptr %1, ptr %6, align 8
  store i64 %2, ptr %7, align 8
  %8 = load ptr, ptr %5, align 8
  %9 = getelementptr inbounds %class.FileIO, ptr %8, i32 0, i32 1
  %10 = load ptr, ptr %9, align 8
  %11 = icmp ne ptr %10, null
  br i1 %11, label %12, label %16

12:                                               ; preds = %3
  %13 = getelementptr inbounds %class.FileIO, ptr %8, i32 0, i32 2
  %14 = load i32, ptr %13, align 8
  %15 = icmp ne i32 %14, 1
  br i1 %15, label %16, label %17

16:                                               ; preds = %12, %3
  store i1 false, ptr %4, align 1
  br label %23

17:                                               ; preds = %12
  %18 = load ptr, ptr %6, align 8
  %19 = load i64, ptr %7, align 8
  %20 = getelementptr inbounds %class.FileIO, ptr %8, i32 0, i32 1
  %21 = load ptr, ptr %20, align 8
  %22 = call i64 @fwrite(ptr noundef %18, i64 noundef %19, i64 noundef 1, ptr noundef %21)
  store i1 true, ptr %4, align 1
  br label %23

23:                                               ; preds = %17, %16
  %24 = load i1, ptr %4, align 1
  ret i1 %24
}