; Function Attrs: mustprogress nofree nounwind uwtable
define dso_local noundef zeroext i1 @_ZN6FileIO5writeEPKvm(ptr nocapture noundef nonnull readonly align 8 dereferenceable(20) %0, ptr nocapture noundef %1, i64 noundef %2) unnamed_addr #6 align 2 {
  %4 = getelementptr inbounds i8, ptr %0, i64 8
  %5 = load ptr, ptr %4, align 8
  %.not = icmp ne ptr %5, null
  %6 = getelementptr inbounds i8, ptr %0, i64 16
  %7 = load i32, ptr %6, align 8
  %.not4 = icmp eq i32 %7, 1
  %or.cond = select i1 %.not, i1 %.not4, i1 false
  br i1 %or.cond, label %8, label %10

8:                                                ; preds = %3
  %9 = tail call i64 @fwrite(ptr noundef %1, i64 noundef %2, i64 noundef 1, ptr noundef nonnull %5)
  br label %10

10:                                               ; preds = %3, %8
  ret i1 %or.cond
}